; Function Attrs: mustprogress uwtable
define void @_ZN2cv4gapi15warpPerspectiveERKNS_4GMatERKNS_3MatERKNS_5Size_IiEEiiRKNS_7Scalar_IdEE(ptr dead_on_unwind noalias writable sret(%"class.cv::GMat") align 8 %0, ptr noundef nonnull readonly align 8 captures(none) dereferenceable(16) %1, ptr noundef nonnull align 8 dereferenceable(96) %2, ptr noundef nonnull readonly align 4 captures(none) dereferenceable(8) %3, i32 noundef %4, i32 noundef %5, ptr noundef nonnull align 8 dereferenceable(32) %6) local_unnamed_addr #3 personality ptr @__gxx_personality_v0 {
  %8 = alloca %"class.cv::GMat", align 8
  %9 = load ptr, ptr %1, align 8, !tbaa !3
  store ptr %9, ptr %8, align 8, !tbaa !3
  %10 = getelementptr inbounds nuw i8, ptr %8, i64 8
  %11 = getelementptr inbounds nuw i8, ptr %1, i64 8
  %12 = load ptr, ptr %11, align 8, !tbaa !11
  store ptr %12, ptr %10, align 8, !tbaa !11
  %.not.i.i.i.i = icmp eq ptr %12, null
  br i1 %.not.i.i.i.i, label %_ZN2cv4GMatC2ERKS0_.exit, label %13

13:                                               ; preds = %7
  %14 = getelementptr inbounds nuw i8, ptr %12, i64 8
  %15 = load i8, ptr @__libc_single_threaded, align 1, !tbaa !12
  %.not.i.i.i.i.i = icmp eq i8 %15, 0
  br i1 %.not.i.i.i.i.i, label %19, label %16

16:                                               ; preds = %13
  %17 = load i32, ptr %14, align 4, !tbaa !13
  %18 = add nsw i32 %17, 1
  store i32 %18, ptr %14, align 4, !tbaa !13
  br label %_ZN2cv4GMatC2ERKS0_.exit

19:                                               ; preds = %13
  %20 = atomicrmw volatile add ptr %14, i32 1 acq_rel, align 4
  br label %_ZN2cv4GMatC2ERKS0_.exit

_ZN2cv4GMatC2ERKS0_.exit:                         ; preds = %7, %16, %19
  %.sroa.0.0.copyload = load i64, ptr %3, align 4
  invoke void @_ZN2cv11GKernelTypeINS_4gapi4core16GWarpPerspectiveESt8functionIFNS_4GMatES5_RKNS_3MatENS_5Size_IiEEiiRKNS_7Scalar_IdEEEEE2onES5_S8_SA_iiSE_(ptr dead_on_unwind writable sret(%"class.cv::GMat") align 8 %0, ptr noundef nonnull %8, ptr noundef nonnull align 8 dereferenceable(96) %2, i64 %.sroa.0.0.copyload, i32 noundef %4, i32 noundef %5, ptr noundef nonnull align 8 dereferenceable(32) %6)
          to label %21 unwind label %44

21:                                               ; preds = %_ZN2cv4GMatC2ERKS0_.exit
  %22 = load ptr, ptr %10, align 8, !tbaa !11
  %.not.i.i.i = icmp eq ptr %22, null
  br i1 %.not.i.i.i, label %_ZN2cv4GMatD2Ev.exit, label %23

23:                                               ; preds = %21
  %24 = getelementptr inbounds nuw i8, ptr %22, i64 8
  %25 = load atomic i64, ptr %24 acquire, align 8
  %26 = icmp eq i64 %25, 4294967297
  %27 = trunc i64 %25 to i32
  br i1 %26, label %28, label %36

28:                                               ; preds = %23
  store i32 0, ptr %24, align 8, !tbaa !15
  %29 = getelementptr inbounds nuw i8, ptr %22, i64 12
  store i32 0, ptr %29, align 4, !tbaa !17
  %30 = load ptr, ptr %22, align 8, !tbaa !18
  %31 = getelementptr inbounds nuw i8, ptr %30, i64 16
  %32 = load ptr, ptr %31, align 8
  call void %32(ptr noundef nonnull align 8 dereferenceable(16) %22) #23
  %33 = load ptr, ptr %22, align 8, !tbaa !18
  %34 = getelementptr inbounds nuw i8, ptr %33, i64 24
  %35 = load ptr, ptr %34, align 8
  call void %35(ptr noundef nonnull align 8 dereferenceable(16) %22) #23
  br label %_ZN2cv4GMatD2Ev.exit

36:                                               ; preds = %23
  %37 = load i8, ptr @__libc_single_threaded, align 1, !tbaa !12
  %.not.i.i.i.i7 = icmp eq i8 %37, 0
  br i1 %.not.i.i.i.i7, label %40, label %38

38:                                               ; preds = %36
  %39 = add nsw i32 %27, -1
  store i32 %39, ptr %24, align 4, !tbaa !13
  br label %_ZN9__gnu_cxx27__exchange_and_add_dispatchEPii.exit.i.i.i.i

40:                                               ; preds = %36
  %41 = atomicrmw volatile add ptr %24, i32 -1 acq_rel, align 4
  br label %_ZN9__gnu_cxx27__exchange_and_add_dispatchEPii.exit.i.i.i.i

_ZN9__gnu_cxx27__exchange_and_add_dispatchEPii.exit.i.i.i.i: ; preds = %40, %38
  %.0.i.i.i.i.i = phi i32 [ %27, %38 ], [ %41, %40 ]
  %42 = icmp eq i32 %.0.i.i.i.i.i, 1
  br i1 %42, label %43, label %_ZN2cv4GMatD2Ev.exit, !prof !20

43:                                               ; preds = %_ZN9__gnu_cxx27__exchange_and_add_dispatchEPii.exit.i.i.i.i
  call void @_ZNSt16_Sp_counted_baseILN9__gnu_cxx12_Lock_policyE2EE24_M_release_last_use_coldEv(ptr noundef nonnull align 8 dereferenceable(16) %22) #23
  br label %_ZN2cv4GMatD2Ev.exit

_ZN2cv4GMatD2Ev.exit:                             ; preds = %21, %28, %_ZN9__gnu_cxx27__exchange_and_add_dispatchEPii.exit.i.i.i.i, %43
  ret void

44:                                               ; preds = %_ZN2cv4GMatC2ERKS0_.exit
  %45 = landingpad { ptr, i32 }
          cleanup
  call void @_ZN2cv4GMatD2Ev(ptr noundef nonnull align 8 dereferenceable(16) %8) #23
  resume { ptr, i32 } %45
}